csip
_unpickle_type
p0
(S'PyQt4.QtCore'
p1
S'QString'
p2
(V/Users/arana/PycharmProjects/Distributor/Test File.txt
p3
tp4
tp5
Rp6
.(lp0
S'Preferences'
p1
acsip
_unpickle_type
p2
(S'PyQt4.QtCore'
p3
S'QString'
p4
(V~
p5
tp6
tp7
Rp8
a.V~
p0
.I1
.(lp0
S'AC008 Instructors'
p1
aS'CSMajors'
p2
aS'AC008Users'
p3
a.(lp0
S'CSMajors'
p1
aS'AC008 Instructors'
p2
a.S'isis.newbury.edu'
p0
.S'~/'
p0
.S'admin:remotePassSlot'
p0
.