csip
_unpickle_type
p0
(S'PyQt4.QtCore'
p1
S'QString'
p2
(V/Users/arana/PycharmProjects/Distributor/passwords.txt
p3
tp4
tp5
Rp6
.(lp0
S'Home Folder'
p1
aS'Preferences'
p2
acsip
_unpickle_type
p3
(S'PyQt4.QtCore'
p4
S'QString'
p5
(VAbstract
p6
tp7
tp8
Rp9
ag3
(g4
S'QString'
p10
(VDocuments
p11
tp12
tp13
Rp14
a.VPrefTest
p0
.I-1
.S'isis.newbury.edu'
p0
.S'~/'
p0
.S'admin:remotePassSlot'
p0
.